target datalayout = "e-m:e-p270:32:32-p271:32:32-p272:64:64-i64:64-i128:128-f80:128-n8:16:32:64-S128"
target triple = "x86_64-pc-linux-gnu"

%struct.slabclass_t = type { i32, i32, ptr, i32, i32, ptr, i32 }
%union.pthread_mutex_t = type { %struct.__pthread_mutex_s }
%struct.__pthread_mutex_s = type { i32, i32, i32, i32, i32, i16, i16, %struct.__pthread_internal_list }
%struct.__pthread_internal_list = type { ptr, ptr }
%struct.slab_stats_automove = type { i32, i32, i64, i64 }

@slabclass = internal global [64 x %struct.slabclass_t] zeroinitializer, align 16
@slabs_lock = internal global %union.pthread_mutex_t zeroinitializer, align 8

; Function Attrs: nounwind uwtable
define dso_local void @fill_slab_stats_automove(ptr noundef %0) #0 {
  %2 = alloca ptr, align 8
  %3 = alloca i32, align 4
  %4 = alloca ptr, align 8
  %5 = alloca ptr, align 8
  store ptr %0, ptr %2, align 8, !tbaa !25
  call void @llvm.lifetime.start.p0(i64 4, ptr %3) #9
  %6 = call i32 @pthread_mutex_lock(ptr noundef @slabs_lock) #9
  store i32 0, ptr %3, align 4, !tbaa !8
  br label %7

7:                                                ; preds = %40, %1
  %8 = load i32, ptr %3, align 4, !tbaa !8
  %9 = icmp slt i32 %8, 64
  br i1 %9, label %10, label %43

10:                                               ; preds = %7
  call void @llvm.lifetime.start.p0(i64 8, ptr %4) #9
  %11 = load i32, ptr %3, align 4, !tbaa !8
  %12 = sext i32 %11 to i64
  %13 = getelementptr inbounds [64 x %struct.slabclass_t], ptr @slabclass, i64 0, i64 %12
  store ptr %13, ptr %4, align 8, !tbaa !25
  call void @llvm.lifetime.start.p0(i64 8, ptr %5) #9
  %14 = load ptr, ptr %2, align 8, !tbaa !25
  %15 = load i32, ptr %3, align 4, !tbaa !8
  %16 = sext i32 %15 to i64
  %17 = getelementptr inbounds %struct.slab_stats_automove, ptr %14, i64 %16
  store ptr %17, ptr %5, align 8, !tbaa !25
  %18 = load ptr, ptr %4, align 8, !tbaa !25
  %19 = getelementptr inbounds nuw %struct.slabclass_t, ptr %18, i32 0, i32 1
  %20 = load i32, ptr %19, align 4, !tbaa !44
  %21 = load ptr, ptr %5, align 8, !tbaa !25
  %22 = getelementptr inbounds nuw %struct.slab_stats_automove, ptr %21, i32 0, i32 0
  store i32 %20, ptr %22, align 8, !tbaa !50
  %23 = load ptr, ptr %4, align 8, !tbaa !25
  %24 = getelementptr inbounds nuw %struct.slabclass_t, ptr %23, i32 0, i32 3
  %25 = load i32, ptr %24, align 8, !tbaa !31
  %26 = zext i32 %25 to i64
  %27 = load ptr, ptr %5, align 8, !tbaa !25
  %28 = getelementptr inbounds nuw %struct.slab_stats_automove, ptr %27, i32 0, i32 2
  store i64 %26, ptr %28, align 8, !tbaa !52
  %29 = load ptr, ptr %4, align 8, !tbaa !25
  %30 = getelementptr inbounds nuw %struct.slabclass_t, ptr %29, i32 0, i32 4
  %31 = load i32, ptr %30, align 4, !tbaa !27
  %32 = zext i32 %31 to i64
  %33 = load ptr, ptr %5, align 8, !tbaa !25
  %34 = getelementptr inbounds nuw %struct.slab_stats_automove, ptr %33, i32 0, i32 3
  store i64 %32, ptr %34, align 8, !tbaa !53
  %35 = load ptr, ptr %4, align 8, !tbaa !25
  %36 = getelementptr inbounds nuw %struct.slabclass_t, ptr %35, i32 0, i32 0
  %37 = load i32, ptr %36, align 8, !tbaa !17
  %38 = load ptr, ptr %5, align 8, !tbaa !25
  %39 = getelementptr inbounds nuw %struct.slab_stats_automove, ptr %38, i32 0, i32 1
  store i32 %37, ptr %39, align 4, !tbaa !54
  call void @llvm.lifetime.end.p0(i64 8, ptr %5) #9
  call void @llvm.lifetime.end.p0(i64 8, ptr %4) #9
  br label %40

40:                                               ; preds = %10
  %41 = load i32, ptr %3, align 4, !tbaa !8
  %42 = add nsw i32 %41, 1
  store i32 %42, ptr %3, align 4, !tbaa !8
  br label %7, !llvm.loop !55

43:                                               ; preds = %7
  %44 = call i32 @pthread_mutex_unlock(ptr noundef @slabs_lock) #9
  call void @llvm.lifetime.end.p0(i64 4, ptr %3) #9
  ret void
}