; Function Attrs: nounwind uwtable
define dso_local void @fill_slab_stats_automove(ptr noundef writeonly captures(none) %0) local_unnamed_addr #4 {
  %2 = tail call i32 @pthread_mutex_lock(ptr noundef nonnull @slabs_lock) #21
  br label %3

3:                                                ; preds = %1, %3
  %indvars.iv = phi i64 [ 0, %1 ], [ %indvars.iv.next, %3 ]
  %4 = getelementptr inbounds nuw [64 x %struct.slabclass_t], ptr @slabclass, i64 0, i64 %indvars.iv
  %5 = getelementptr inbounds nuw %struct.slab_stats_automove, ptr %0, i64 %indvars.iv
  %6 = getelementptr inbounds nuw i8, ptr %4, i64 4
  %7 = load i32, ptr %6, align 4, !tbaa !38
  store i32 %7, ptr %5, align 8, !tbaa !42
  %8 = getelementptr inbounds nuw i8, ptr %4, i64 16
  %9 = load i32, ptr %8, align 8, !tbaa !23
  %10 = zext i32 %9 to i64
  %11 = getelementptr inbounds nuw i8, ptr %5, i64 8
  store i64 %10, ptr %11, align 8, !tbaa !44
  %12 = getelementptr inbounds nuw i8, ptr %4, i64 20
  %13 = load i32, ptr %12, align 4, !tbaa !13
  %14 = zext i32 %13 to i64
  %15 = getelementptr inbounds nuw i8, ptr %5, i64 16
  store i64 %14, ptr %15, align 8, !tbaa !45
  %16 = load i32, ptr %4, align 8, !tbaa !4
  %17 = getelementptr inbounds nuw i8, ptr %5, i64 4
  store i32 %16, ptr %17, align 4, !tbaa !46
  %indvars.iv.next = add nuw nsw i64 %indvars.iv, 1
  %exitcond.not = icmp eq i64 %indvars.iv.next, 64
  br i1 %exitcond.not, label %18, label %3, !llvm.loop !47

18:                                               ; preds = %3
  %19 = tail call i32 @pthread_mutex_unlock(ptr noundef nonnull @slabs_lock) #21
  ret void
}